target datalayout = "e-m:e-p270:32:32-p271:32:32-p272:64:64-i64:64-i128:128-f80:128-n8:16:32:64-S128"
target triple = "x86_64-unknown-linux-gnu"

%struct.b2Vec2 = type { float, float }
%struct.b2JointUserData = type { i64 }
%class.b2GearJoint = type <{ %class.b2Joint, ptr, ptr, i32, i32, ptr, ptr, %struct.b2Vec2, %struct.b2Vec2, %struct.b2Vec2, %struct.b2Vec2, %struct.b2Vec2, %struct.b2Vec2, float, float, float, float, float, float, i32, i32, i32, i32, %struct.b2Vec2, %struct.b2Vec2, %struct.b2Vec2, %struct.b2Vec2, float, float, float, float, float, float, float, float, %struct.b2Vec2, %struct.b2Vec2, float, float, float, float, float, [4 x i8] }>
%class.b2Joint = type { ptr, i32, ptr, ptr, %struct.b2JointEdge, %struct.b2JointEdge, ptr, ptr, i32, i8, i8, %struct.b2JointUserData }
%struct.b2JointEdge = type { ptr, ptr, ptr, ptr }

; Function Attrs: mustprogress nounwind uwtable
define noundef float @_ZNK11b2GearJoint17GetReactionTorqueEf(ptr noundef nonnull align 8 dereferenceable(356) %this, float noundef %inv_dt) unnamed_addr #2 align 2 {
entry:
  %this.addr = alloca ptr, align 8
  %inv_dt.addr = alloca float, align 4
  %L = alloca float, align 4
  store ptr %this, ptr %this.addr, align 8
  store float %inv_dt, ptr %inv_dt.addr, align 4
  %this1 = load ptr, ptr %this.addr, align 8
  %m_impulse = getelementptr inbounds %class.b2GearJoint, ptr %this1, i32 0, i32 18
  %0 = load float, ptr %m_impulse, align 4
  %m_JwA = getelementptr inbounds %class.b2GearJoint, ptr %this1, i32 0, i32 37
  %1 = load float, ptr %m_JwA, align 8
  %mul = fmul float %0, %1
  store float %mul, ptr %L, align 4
  %2 = load float, ptr %inv_dt.addr, align 4
  %3 = load float, ptr %L, align 4
  %mul2 = fmul float %2, %3
  ret float %mul2
}