; Function Attrs: mustprogress nofree norecurse nosync nounwind willreturn memory(argmem: read) uwtable
define noundef float @_ZNK11b2GearJoint17GetReactionTorqueEf(ptr nocapture noundef nonnull readonly align 8 dereferenceable(356) %this, float noundef %inv_dt) unnamed_addr #7 align 2 {
entry:
  %m_impulse = getelementptr inbounds i8, ptr %this, i64 236
  %0 = load float, ptr %m_impulse, align 4
  %m_JwA = getelementptr inbounds i8, ptr %this, i64 336
  %1 = load float, ptr %m_JwA, align 8
  %mul = fmul float %0, %1
  %mul2 = fmul float %mul, %inv_dt
  ret float %mul2
}